target datalayout = "e-m:e-p270:32:32-p271:32:32-p272:64:64-i64:64-i128:128-f80:128-n8:16:32:64-S128"
target triple = "x86_64-pc-linux-gnu"

%struct.internal_hooks = type { ptr, ptr, ptr }
%struct.cJSON = type { ptr, ptr, ptr, i32, ptr, i32, double, ptr }

@global_hooks = internal global %struct.internal_hooks { ptr @malloc, ptr @free, ptr @realloc }, align 8

; Function Attrs: nounwind sspstrong uwtable
define internal ptr @cJSON_strdup(ptr noundef %0, ptr noundef %1) #0 {
  %3 = alloca ptr, align 8
  %4 = alloca ptr, align 8
  %5 = alloca ptr, align 8
  %6 = alloca i64, align 8
  %7 = alloca ptr, align 8
  %8 = alloca i32, align 4
  store ptr %0, ptr %4, align 8, !tbaa !33
  store ptr %1, ptr %5, align 8, !tbaa !35
  call void @llvm.lifetime.start.p0(i64 8, ptr %6) #10
  store i64 0, ptr %6, align 8, !tbaa !34
  call void @llvm.lifetime.start.p0(i64 8, ptr %7) #10
  store ptr null, ptr %7, align 8, !tbaa !33
  %9 = load ptr, ptr %4, align 8, !tbaa !33
  %10 = icmp eq ptr %9, null
  br i1 %10, label %11, label %12

11:                                               ; preds = %2
  store ptr null, ptr %3, align 8
  store i32 1, ptr %8, align 4
  br label %29

12:                                               ; preds = %2
  %13 = load ptr, ptr %4, align 8, !tbaa !33
  %14 = call i64 @strlen(ptr noundef %13) #11
  %15 = add i64 %14, 1
  store i64 %15, ptr %6, align 8, !tbaa !34
  %16 = load ptr, ptr %5, align 8, !tbaa !35
  %17 = getelementptr inbounds nuw %struct.internal_hooks, ptr %16, i32 0, i32 0
  %18 = load ptr, ptr %17, align 8, !tbaa !21
  %19 = load i64, ptr %6, align 8, !tbaa !34
  %20 = call ptr %18(i64 noundef %19)
  store ptr %20, ptr %7, align 8, !tbaa !33
  %21 = load ptr, ptr %7, align 8, !tbaa !33
  %22 = icmp eq ptr %21, null
  br i1 %22, label %23, label %24

23:                                               ; preds = %12
  store ptr null, ptr %3, align 8
  store i32 1, ptr %8, align 4
  br label %29

24:                                               ; preds = %12
  %25 = load ptr, ptr %7, align 8, !tbaa !33
  %26 = load ptr, ptr %4, align 8, !tbaa !33
  %27 = load i64, ptr %6, align 8, !tbaa !34
  call void @llvm.memcpy.p0.p0.i64(ptr align 1 %25, ptr align 1 %26, i64 %27, i1 false)
  %28 = load ptr, ptr %7, align 8, !tbaa !33
  store ptr %28, ptr %3, align 8
  store i32 1, ptr %8, align 4
  br label %29

29:                                               ; preds = %24, %23, %11
  call void @llvm.lifetime.end.p0(i64 8, ptr %7) #10
  call void @llvm.lifetime.end.p0(i64 8, ptr %6) #10
  %30 = load ptr, ptr %3, align 8
  ret ptr %30
}

; Function Attrs: nounwind sspstrong uwtable
define internal ptr @cJSON_New_Item(ptr noundef %0) #0 {
  %2 = alloca ptr, align 8
  %3 = alloca ptr, align 8
  store ptr %0, ptr %2, align 8, !tbaa !35
  call void @llvm.lifetime.start.p0(i64 8, ptr %3) #10
  %4 = load ptr, ptr %2, align 8, !tbaa !35
  %5 = getelementptr inbounds nuw %struct.internal_hooks, ptr %4, i32 0, i32 0
  %6 = load ptr, ptr %5, align 8, !tbaa !21
  %7 = call ptr %6(i64 noundef 64)
  store ptr %7, ptr %3, align 8, !tbaa !11
  %8 = load ptr, ptr %3, align 8, !tbaa !11
  %9 = icmp ne ptr %8, null
  br i1 %9, label %10, label %12

10:                                               ; preds = %1
  %11 = load ptr, ptr %3, align 8, !tbaa !11
  call void @llvm.memset.p0.i64(ptr align 8 %11, i8 0, i64 64, i1 false)
  br label %12

12:                                               ; preds = %10, %1
  %13 = load ptr, ptr %3, align 8, !tbaa !11
  call void @llvm.lifetime.end.p0(i64 8, ptr %3) #10
  ret ptr %13
}

; Function Attrs: nounwind sspstrong uwtable
define hidden ptr @cJSON_Duplicate_rec(ptr noundef %0, i64 noundef %1, i32 noundef %2) #0 {
  %4 = alloca ptr, align 8
  %5 = alloca ptr, align 8
  %6 = alloca i64, align 8
  %7 = alloca i32, align 4
  %8 = alloca ptr, align 8
  %9 = alloca ptr, align 8
  %10 = alloca ptr, align 8
  %11 = alloca ptr, align 8
  %12 = alloca i32, align 4
  store ptr %0, ptr %5, align 8, !tbaa !11
  store i64 %1, ptr %6, align 8, !tbaa !34
  store i32 %2, ptr %7, align 4, !tbaa !40
  call void @llvm.lifetime.start.p0(i64 8, ptr %8) #10
  store ptr null, ptr %8, align 8, !tbaa !11
  call void @llvm.lifetime.start.p0(i64 8, ptr %9) #10
  store ptr null, ptr %9, align 8, !tbaa !11
  call void @llvm.lifetime.start.p0(i64 8, ptr %10) #10
  store ptr null, ptr %10, align 8, !tbaa !11
  call void @llvm.lifetime.start.p0(i64 8, ptr %11) #10
  store ptr null, ptr %11, align 8, !tbaa !11
  %13 = load ptr, ptr %5, align 8, !tbaa !11
  %14 = icmp ne ptr %13, null
  br i1 %14, label %16, label %15

15:                                               ; preds = %3
  br label %145

16:                                               ; preds = %3
  %17 = call ptr @cJSON_New_Item(ptr noundef @global_hooks)
  store ptr %17, ptr %8, align 8, !tbaa !11
  %18 = load ptr, ptr %8, align 8, !tbaa !11
  %19 = icmp ne ptr %18, null
  br i1 %19, label %21, label %20

20:                                               ; preds = %16
  br label %145

21:                                               ; preds = %16
  %22 = load ptr, ptr %5, align 8, !tbaa !11
  %23 = getelementptr inbounds nuw %struct.cJSON, ptr %22, i32 0, i32 3
  %24 = load i32, ptr %23, align 8, !tbaa !17
  %25 = and i32 %24, -257
  %26 = load ptr, ptr %8, align 8, !tbaa !11
  %27 = getelementptr inbounds nuw %struct.cJSON, ptr %26, i32 0, i32 3
  store i32 %25, ptr %27, align 8, !tbaa !17
  %28 = load ptr, ptr %5, align 8, !tbaa !11
  %29 = getelementptr inbounds nuw %struct.cJSON, ptr %28, i32 0, i32 5
  %30 = load i32, ptr %29, align 8, !tbaa !32
  %31 = load ptr, ptr %8, align 8, !tbaa !11
  %32 = getelementptr inbounds nuw %struct.cJSON, ptr %31, i32 0, i32 5
  store i32 %30, ptr %32, align 8, !tbaa !32
  %33 = load ptr, ptr %5, align 8, !tbaa !11
  %34 = getelementptr inbounds nuw %struct.cJSON, ptr %33, i32 0, i32 6
  %35 = load double, ptr %34, align 8, !tbaa !18
  %36 = load ptr, ptr %8, align 8, !tbaa !11
  %37 = getelementptr inbounds nuw %struct.cJSON, ptr %36, i32 0, i32 6
  store double %35, ptr %37, align 8, !tbaa !18
  %38 = load ptr, ptr %5, align 8, !tbaa !11
  %39 = getelementptr inbounds nuw %struct.cJSON, ptr %38, i32 0, i32 4
  %40 = load ptr, ptr %39, align 8, !tbaa !13
  %41 = icmp ne ptr %40, null
  br i1 %41, label %42, label %55

42:                                               ; preds = %21
  %43 = load ptr, ptr %5, align 8, !tbaa !11
  %44 = getelementptr inbounds nuw %struct.cJSON, ptr %43, i32 0, i32 4
  %45 = load ptr, ptr %44, align 8, !tbaa !13
  %46 = call ptr @cJSON_strdup(ptr noundef %45, ptr noundef @global_hooks)
  %47 = load ptr, ptr %8, align 8, !tbaa !11
  %48 = getelementptr inbounds nuw %struct.cJSON, ptr %47, i32 0, i32 4
  store ptr %46, ptr %48, align 8, !tbaa !13
  %49 = load ptr, ptr %8, align 8, !tbaa !11
  %50 = getelementptr inbounds nuw %struct.cJSON, ptr %49, i32 0, i32 4
  %51 = load ptr, ptr %50, align 8, !tbaa !13
  %52 = icmp ne ptr %51, null
  br i1 %52, label %54, label %53

53:                                               ; preds = %42
  br label %145

54:                                               ; preds = %42
  br label %55

55:                                               ; preds = %54, %21
  %56 = load ptr, ptr %5, align 8, !tbaa !11
  %57 = getelementptr inbounds nuw %struct.cJSON, ptr %56, i32 0, i32 7
  %58 = load ptr, ptr %57, align 8, !tbaa !30
  %59 = icmp ne ptr %58, null
  br i1 %59, label %60, label %85

60:                                               ; preds = %55
  %61 = load ptr, ptr %5, align 8, !tbaa !11
  %62 = getelementptr inbounds nuw %struct.cJSON, ptr %61, i32 0, i32 3
  %63 = load i32, ptr %62, align 8, !tbaa !17
  %64 = and i32 %63, 512
  %65 = icmp ne i32 %64, 0
  br i1 %65, label %66, label %70

66:                                               ; preds = %60
  %67 = load ptr, ptr %5, align 8, !tbaa !11
  %68 = getelementptr inbounds nuw %struct.cJSON, ptr %67, i32 0, i32 7
  %69 = load ptr, ptr %68, align 8, !tbaa !30
  br label %75

70:                                               ; preds = %60
  %71 = load ptr, ptr %5, align 8, !tbaa !11
  %72 = getelementptr inbounds nuw %struct.cJSON, ptr %71, i32 0, i32 7
  %73 = load ptr, ptr %72, align 8, !tbaa !30
  %74 = call ptr @cJSON_strdup(ptr noundef %73, ptr noundef @global_hooks)
  br label %75

75:                                               ; preds = %70, %66
  %76 = phi ptr [ %69, %66 ], [ %74, %70 ]
  %77 = load ptr, ptr %8, align 8, !tbaa !11
  %78 = getelementptr inbounds nuw %struct.cJSON, ptr %77, i32 0, i32 7
  store ptr %76, ptr %78, align 8, !tbaa !30
  %79 = load ptr, ptr %8, align 8, !tbaa !11
  %80 = getelementptr inbounds nuw %struct.cJSON, ptr %79, i32 0, i32 7
  %81 = load ptr, ptr %80, align 8, !tbaa !30
  %82 = icmp ne ptr %81, null
  br i1 %82, label %84, label %83

83:                                               ; preds = %75
  br label %145

84:                                               ; preds = %75
  br label %85

85:                                               ; preds = %84, %55
  %86 = load i32, ptr %7, align 4, !tbaa !40
  %87 = icmp ne i32 %86, 0
  br i1 %87, label %90, label %88

88:                                               ; preds = %85
  %89 = load ptr, ptr %8, align 8, !tbaa !11
  store ptr %89, ptr %4, align 8
  store i32 1, ptr %12, align 4
  br label %151

90:                                               ; preds = %85
  %91 = load ptr, ptr %5, align 8, !tbaa !11
  %92 = getelementptr inbounds nuw %struct.cJSON, ptr %91, i32 0, i32 2
  %93 = load ptr, ptr %92, align 8, !tbaa !29
  store ptr %93, ptr %9, align 8, !tbaa !11
  br label %94

94:                                               ; preds = %125, %90
  %95 = load ptr, ptr %9, align 8, !tbaa !11
  %96 = icmp ne ptr %95, null
  br i1 %96, label %97, label %129

97:                                               ; preds = %94
  %98 = load i64, ptr %6, align 8, !tbaa !34
  %99 = icmp uge i64 %98, 10000
  br i1 %99, label %100, label %101

100:                                              ; preds = %97
  br label %145

101:                                              ; preds = %97
  %102 = load ptr, ptr %9, align 8, !tbaa !11
  %103 = load i64, ptr %6, align 8, !tbaa !34
  %104 = add i64 %103, 1
  %105 = call ptr @cJSON_Duplicate_rec(ptr noundef %102, i64 noundef %104, i32 noundef 1)
  store ptr %105, ptr %11, align 8, !tbaa !11
  %106 = load ptr, ptr %11, align 8, !tbaa !11
  %107 = icmp ne ptr %106, null
  br i1 %107, label %109, label %108

108:                                              ; preds = %101
  br label %145

109:                                              ; preds = %101
  %110 = load ptr, ptr %10, align 8, !tbaa !11
  %111 = icmp ne ptr %110, null
  br i1 %111, label %112, label %120

112:                                              ; preds = %109
  %113 = load ptr, ptr %11, align 8, !tbaa !11
  %114 = load ptr, ptr %10, align 8, !tbaa !11
  %115 = getelementptr inbounds nuw %struct.cJSON, ptr %114, i32 0, i32 0
  store ptr %113, ptr %115, align 8, !tbaa !28
  %116 = load ptr, ptr %10, align 8, !tbaa !11
  %117 = load ptr, ptr %11, align 8, !tbaa !11
  %118 = getelementptr inbounds nuw %struct.cJSON, ptr %117, i32 0, i32 1
  store ptr %116, ptr %118, align 8, !tbaa !54
  %119 = load ptr, ptr %11, align 8, !tbaa !11
  store ptr %119, ptr %10, align 8, !tbaa !11
  br label %125

120:                                              ; preds = %109
  %121 = load ptr, ptr %11, align 8, !tbaa !11
  %122 = load ptr, ptr %8, align 8, !tbaa !11
  %123 = getelementptr inbounds nuw %struct.cJSON, ptr %122, i32 0, i32 2
  store ptr %121, ptr %123, align 8, !tbaa !29
  %124 = load ptr, ptr %11, align 8, !tbaa !11
  store ptr %124, ptr %10, align 8, !tbaa !11
  br label %125

125:                                              ; preds = %120, %112
  %126 = load ptr, ptr %9, align 8, !tbaa !11
  %127 = getelementptr inbounds nuw %struct.cJSON, ptr %126, i32 0, i32 0
  %128 = load ptr, ptr %127, align 8, !tbaa !28
  store ptr %128, ptr %9, align 8, !tbaa !11
  br label %94

129:                                              ; preds = %94
  %130 = load ptr, ptr %8, align 8, !tbaa !11
  %131 = icmp ne ptr %130, null
  br i1 %131, label %132, label %143

132:                                              ; preds = %129
  %133 = load ptr, ptr %8, align 8, !tbaa !11
  %134 = getelementptr inbounds nuw %struct.cJSON, ptr %133, i32 0, i32 2
  %135 = load ptr, ptr %134, align 8, !tbaa !29
  %136 = icmp ne ptr %135, null
  br i1 %136, label %137, label %143

137:                                              ; preds = %132
  %138 = load ptr, ptr %11, align 8, !tbaa !11
  %139 = load ptr, ptr %8, align 8, !tbaa !11
  %140 = getelementptr inbounds nuw %struct.cJSON, ptr %139, i32 0, i32 2
  %141 = load ptr, ptr %140, align 8, !tbaa !29
  %142 = getelementptr inbounds nuw %struct.cJSON, ptr %141, i32 0, i32 1
  store ptr %138, ptr %142, align 8, !tbaa !54
  br label %143

143:                                              ; preds = %137, %132, %129
  %144 = load ptr, ptr %8, align 8, !tbaa !11
  store ptr %144, ptr %4, align 8
  store i32 1, ptr %12, align 4
  br label %151

145:                                              ; preds = %108, %100, %83, %53, %20, %15
  %146 = load ptr, ptr %8, align 8, !tbaa !11
  %147 = icmp ne ptr %146, null
  br i1 %147, label %148, label %150

148:                                              ; preds = %145
  %149 = load ptr, ptr %8, align 8, !tbaa !11
  call void @cJSON_Delete(ptr noundef %149)
  br label %150

150:                                              ; preds = %148, %145
  store ptr null, ptr %4, align 8
  store i32 1, ptr %12, align 4
  br label %151

151:                                              ; preds = %150, %143, %88
  call void @llvm.lifetime.end.p0(i64 8, ptr %11) #10
  call void @llvm.lifetime.end.p0(i64 8, ptr %10) #10
  call void @llvm.lifetime.end.p0(i64 8, ptr %9) #10
  call void @llvm.lifetime.end.p0(i64 8, ptr %8) #10
  %152 = load ptr, ptr %4, align 8
  ret ptr %152
}