; Function Attrs: nounwind sspstrong uwtable
define hidden ptr @cJSON_Duplicate_rec(ptr noundef readonly %0, i64 noundef %1, i32 noundef %2) local_unnamed_addr #8 {
  %.not = icmp eq ptr %0, null
  br i1 %.not, label %.thread, label %4

4:                                                ; preds = %3
  %global_hooks.val = load ptr, ptr @global_hooks, align 8, !tbaa !18
  %5 = tail call ptr %global_hooks.val(i64 noundef 64) #31
  %.not.i = icmp eq ptr %5, null
  br i1 %.not.i, label %.thread, label %6

6:                                                ; preds = %4
  tail call void @llvm.memset.p0.i64(ptr noundef nonnull align 8 dereferenceable(64) %5, i8 0, i64 64, i1 false)
  %7 = getelementptr inbounds nuw i8, ptr %0, i64 24
  %8 = load i32, ptr %7, align 8, !tbaa !11
  %9 = and i32 %8, -257
  %10 = getelementptr inbounds nuw i8, ptr %5, i64 24
  store i32 %9, ptr %10, align 8, !tbaa !11
  %11 = getelementptr inbounds nuw i8, ptr %0, i64 40
  %12 = load i32, ptr %11, align 8, !tbaa !27
  %13 = getelementptr inbounds nuw i8, ptr %5, i64 40
  store i32 %12, ptr %13, align 8, !tbaa !27
  %14 = getelementptr inbounds nuw i8, ptr %0, i64 48
  %15 = load double, ptr %14, align 8, !tbaa !17
  %16 = getelementptr inbounds nuw i8, ptr %5, i64 48
  store double %15, ptr %16, align 8, !tbaa !17
  %17 = getelementptr inbounds nuw i8, ptr %0, i64 32
  %18 = load ptr, ptr %17, align 8, !tbaa !16
  %.not55 = icmp eq ptr %18, null
  br i1 %.not55, label %26, label %19

19:                                               ; preds = %6
  %20 = tail call i64 @strlen(ptr noundef nonnull readonly dereferenceable(1) %18) #32
  %21 = add i64 %20, 1
  %22 = load ptr, ptr @global_hooks, align 8, !tbaa !18
  %23 = tail call ptr %22(i64 noundef %21) #31
  %24 = icmp eq ptr %23, null
  br i1 %24, label %.thread74.sink.split, label %cJSON_strdup.exit

cJSON_strdup.exit:                                ; preds = %19
  tail call void @llvm.memcpy.p0.p0.i64(ptr nonnull align 1 %23, ptr nonnull readonly align 1 %18, i64 %21, i1 false)
  %25 = getelementptr inbounds nuw i8, ptr %5, i64 32
  store ptr %23, ptr %25, align 8, !tbaa !16
  br label %26

26:                                               ; preds = %cJSON_strdup.exit, %6
  %27 = getelementptr inbounds nuw i8, ptr %0, i64 56
  %28 = load ptr, ptr %27, align 8, !tbaa !26
  %.not57 = icmp eq ptr %28, null
  br i1 %.not57, label %40, label %29

29:                                               ; preds = %26
  %30 = load i32, ptr %7, align 8, !tbaa !11
  %31 = and i32 %30, 512
  %.not58 = icmp eq i32 %31, 0
  br i1 %.not58, label %32, label %cJSON_strdup.exit67.thread

32:                                               ; preds = %29
  %33 = tail call i64 @strlen(ptr noundef nonnull readonly dereferenceable(1) %28) #32
  %34 = add i64 %33, 1
  %35 = load ptr, ptr @global_hooks, align 8, !tbaa !18
  %36 = tail call ptr %35(i64 noundef %34) #31
  %37 = icmp eq ptr %36, null
  br i1 %37, label %.thread74.sink.split, label %38

38:                                               ; preds = %32
  tail call void @llvm.memcpy.p0.p0.i64(ptr nonnull align 1 %36, ptr nonnull readonly align 1 %28, i64 %34, i1 false)
  br label %cJSON_strdup.exit67.thread

cJSON_strdup.exit67.thread:                       ; preds = %29, %38
  %.ph = phi ptr [ %36, %38 ], [ %28, %29 ]
  %39 = getelementptr inbounds nuw i8, ptr %5, i64 56
  store ptr %.ph, ptr %39, align 8, !tbaa !26
  br label %40

40:                                               ; preds = %cJSON_strdup.exit67.thread, %26
  %.not60 = icmp eq i32 %2, 0
  br i1 %.not60, label %.thread, label %41

41:                                               ; preds = %40
  %42 = getelementptr inbounds nuw i8, ptr %0, i64 16
  %.04479 = load ptr, ptr %42, align 8, !tbaa !53
  %.not6180 = icmp eq ptr %.04479, null
  br i1 %.not6180, label %._crit_edge, label %.lr.ph

.lr.ph:                                           ; preds = %41
  %43 = icmp ugt i64 %1, 9999
  %44 = add nuw nsw i64 %1, 1
  %45 = getelementptr inbounds nuw i8, ptr %5, i64 16
  br i1 %43, label %.thread74, label %.lr.ph.split

.lr.ph.split:                                     ; preds = %.lr.ph, %51
  %.04482 = phi ptr [ %.044, %51 ], [ %.04479, %.lr.ph ]
  %.081 = phi ptr [ %46, %51 ], [ null, %.lr.ph ]
  %46 = tail call ptr @cJSON_Duplicate_rec(ptr noundef nonnull %.04482, i64 noundef %44, i32 noundef 1)
  %.not63 = icmp eq ptr %46, null
  br i1 %.not63, label %.thread74, label %47

47:                                               ; preds = %.lr.ph.split
  %.not64 = icmp eq ptr %.081, null
  br i1 %.not64, label %50, label %48

48:                                               ; preds = %47
  store ptr %46, ptr %.081, align 8, !tbaa !24
  %49 = getelementptr inbounds nuw i8, ptr %46, i64 8
  store ptr %.081, ptr %49, align 8, !tbaa !40
  br label %51

50:                                               ; preds = %47
  store ptr %46, ptr %45, align 8, !tbaa !25
  br label %51

51:                                               ; preds = %50, %48
  %.044 = load ptr, ptr %.04482, align 8, !tbaa !53
  %.not61 = icmp eq ptr %.044, null
  br i1 %.not61, label %._crit_edge, label %.lr.ph.split

._crit_edge:                                      ; preds = %51, %41
  %.0.lcssa = phi ptr [ null, %41 ], [ %46, %51 ]
  %52 = getelementptr inbounds nuw i8, ptr %5, i64 16
  %53 = load ptr, ptr %52, align 8, !tbaa !25
  %.not62 = icmp eq ptr %53, null
  br i1 %.not62, label %.thread, label %54

54:                                               ; preds = %._crit_edge
  %55 = getelementptr inbounds nuw i8, ptr %53, i64 8
  store ptr %.0.lcssa, ptr %55, align 8, !tbaa !40
  br label %.thread

.thread74.sink.split:                             ; preds = %32, %19
  %.sink85 = phi i64 [ 32, %19 ], [ 56, %32 ]
  %56 = getelementptr inbounds nuw i8, ptr %5, i64 %.sink85
  store ptr null, ptr %56, align 8, !tbaa !35
  br label %.thread74

.thread74:                                        ; preds = %.lr.ph.split, %.thread74.sink.split, %.lr.ph
  tail call void @cJSON_Delete(ptr noundef nonnull %5)
  br label %.thread

.thread:                                          ; preds = %4, %3, %.thread74, %._crit_edge, %54, %40
  %.046 = phi ptr [ %5, %40 ], [ %5, %54 ], [ %5, %._crit_edge ], [ null, %.thread74 ], [ null, %3 ], [ null, %4 ]
  ret ptr %.046
}